; Function Attrs: nounwind uwtable
define internal range(i32 -1, 1) i32 @func_set_annotate(ptr noundef captures(none) %0, ptr noundef %1, ptr readnone captures(none) %2) #0 {
  %4 = icmp eq ptr %1, null
  br i1 %4, label %5, label %7

5:                                                ; preds = %3
  %6 = load ptr, ptr @PyExc_TypeError, align 8, !tbaa !96
  tail call void @PyErr_SetString(ptr noundef %6, ptr noundef nonnull @.str.46) #8
  br label %Py_XDECREF.exit

7:                                                ; preds = %3
  %8 = icmp eq ptr %1, @_Py_NoneStruct
  br i1 %8, label %9, label %18

9:                                                ; preds = %7
  %10 = getelementptr inbounds nuw i8, ptr %0, i64 120
  %11 = load ptr, ptr %10, align 8, !tbaa !96
  store ptr @_Py_NoneStruct, ptr %10, align 8, !tbaa !96
  %.not.i22 = icmp eq ptr %11, null
  br i1 %.not.i22, label %Py_XDECREF.exit, label %12

12:                                               ; preds = %9
  %13 = load i32, ptr %11, align 8, !tbaa !99
  %.not.i.i = icmp sgt i32 %13, -1
  br i1 %.not.i.i, label %14, label %Py_XDECREF.exit

14:                                               ; preds = %12
  %15 = add nsw i32 %13, -1
  store i32 %15, ptr %11, align 8, !tbaa !99
  %16 = icmp eq i32 %15, 0
  br i1 %16, label %17, label %Py_XDECREF.exit

17:                                               ; preds = %14
  tail call void @_Py_Dealloc(ptr noundef nonnull %11) #8
  br label %Py_XDECREF.exit

18:                                               ; preds = %7
  %19 = tail call i32 @PyCallable_Check(ptr noundef nonnull %1) #8
  %.not = icmp eq i32 %19, 0
  br i1 %.not, label %41, label %20

20:                                               ; preds = %18
  %21 = getelementptr inbounds nuw i8, ptr %0, i64 120
  %22 = load ptr, ptr %21, align 8, !tbaa !96
  %23 = load i32, ptr %1, align 8, !tbaa !99
  %24 = icmp slt i32 %23, 0
  br i1 %24, label %_Py_XNewRef.exit, label %25

25:                                               ; preds = %20
  %26 = add nuw i32 %23, 1
  store i32 %26, ptr %1, align 8, !tbaa !99
  br label %_Py_XNewRef.exit

_Py_XNewRef.exit:                                 ; preds = %20, %25
  store ptr %1, ptr %21, align 8, !tbaa !96
  %.not.i24 = icmp eq ptr %22, null
  br i1 %.not.i24, label %Py_XDECREF.exit26, label %27

27:                                               ; preds = %_Py_XNewRef.exit
  %28 = load i32, ptr %22, align 8, !tbaa !99
  %.not.i.i25 = icmp sgt i32 %28, -1
  br i1 %.not.i.i25, label %29, label %Py_XDECREF.exit26

29:                                               ; preds = %27
  %30 = add nsw i32 %28, -1
  store i32 %30, ptr %22, align 8, !tbaa !99
  %31 = icmp eq i32 %30, 0
  br i1 %31, label %32, label %Py_XDECREF.exit26

32:                                               ; preds = %29
  tail call void @_Py_Dealloc(ptr noundef nonnull %22) #8
  br label %Py_XDECREF.exit26

Py_XDECREF.exit26:                                ; preds = %_Py_XNewRef.exit, %27, %29, %32
  %33 = getelementptr inbounds nuw i8, ptr %0, i64 112
  %34 = load ptr, ptr %33, align 8, !tbaa !96
  %.not21 = icmp eq ptr %34, null
  br i1 %.not21, label %Py_XDECREF.exit, label %35

35:                                               ; preds = %Py_XDECREF.exit26
  store ptr null, ptr %33, align 8, !tbaa !96
  %36 = load i32, ptr %34, align 8, !tbaa !99
  %.not.i = icmp sgt i32 %36, -1
  br i1 %.not.i, label %37, label %Py_XDECREF.exit

37:                                               ; preds = %35
  %38 = add nsw i32 %36, -1
  store i32 %38, ptr %34, align 8, !tbaa !99
  %39 = icmp eq i32 %38, 0
  br i1 %39, label %40, label %Py_XDECREF.exit

40:                                               ; preds = %37
  tail call void @_Py_Dealloc(ptr noundef nonnull %34) #8
  br label %Py_XDECREF.exit

41:                                               ; preds = %18
  %42 = load ptr, ptr @PyExc_TypeError, align 8, !tbaa !96
  tail call void @PyErr_SetString(ptr noundef %42, ptr noundef nonnull @.str.47) #8
  br label %Py_XDECREF.exit

Py_XDECREF.exit:                                  ; preds = %40, %37, %35, %17, %14, %12, %9, %Py_XDECREF.exit26, %41, %5
  %.0 = phi i32 [ -1, %5 ], [ -1, %41 ], [ 0, %Py_XDECREF.exit26 ], [ 0, %9 ], [ 0, %12 ], [ 0, %14 ], [ 0, %17 ], [ 0, %35 ], [ 0, %37 ], [ 0, %40 ]
  ret i32 %.0
}